target datalayout = "e-m:e-p270:32:32-p271:32:32-p272:64:64-i64:64-i128:128-f80:128-n8:16:32:64-S128"
target triple = "x86_64-pc-linux-gnu"

%struct.SlruSharedData = type { i32, ptr, ptr, ptr, ptr, ptr, ptr, ptr, ptr, ptr, i32, %struct.pg_atomic_uint64, i32 }
%struct.pg_atomic_uint64 = type { i64 }
%union.LWLockPadded = type { %struct.LWLock, [112 x i8] }
%struct.LWLock = type { i16, %struct.pg_atomic_uint32, %struct.proclist_head }
%struct.pg_atomic_uint32 = type { i32 }
%struct.proclist_head = type { i32, i32 }
%struct.SlruCtlData = type { ptr, i16, i8, i32, ptr, [64 x i8] }

; Function Attrs: nounwind uwtable
define internal void @SimpleLruWaitIO(ptr noundef %0, i32 noundef %1) #0 {
  %3 = alloca ptr, align 8
  %4 = alloca i32, align 4
  %5 = alloca ptr, align 8
  %6 = alloca i32, align 4
  store ptr %0, ptr %3, align 8
  store i32 %1, ptr %4, align 4
  call void @llvm.lifetime.start.p0(i64 8, ptr %5) #9
  %7 = load ptr, ptr %3, align 8
  %8 = getelementptr inbounds nuw %struct.SlruCtlData, ptr %7, i32 0, i32 0
  %9 = load ptr, ptr %8, align 8
  store ptr %9, ptr %5, align 8
  call void @llvm.lifetime.start.p0(i64 4, ptr %6) #9
  %10 = load i32, ptr %4, align 4
  %11 = ashr i32 %10, 4
  store i32 %11, ptr %6, align 4
  %12 = load ptr, ptr %5, align 8
  %13 = getelementptr inbounds nuw %struct.SlruSharedData, ptr %12, i32 0, i32 7
  %14 = load ptr, ptr %13, align 8
  %15 = load i32, ptr %6, align 4
  %16 = sext i32 %15 to i64
  %17 = getelementptr inbounds %union.LWLockPadded, ptr %14, i64 %16
  call void @LWLockRelease(ptr noundef %17)
  %18 = load ptr, ptr %5, align 8
  %19 = getelementptr inbounds nuw %struct.SlruSharedData, ptr %18, i32 0, i32 6
  %20 = load ptr, ptr %19, align 8
  %21 = load i32, ptr %4, align 4
  %22 = sext i32 %21 to i64
  %23 = getelementptr inbounds %union.LWLockPadded, ptr %20, i64 %22
  %24 = call zeroext i1 @LWLockAcquire(ptr noundef %23, i32 noundef 1)
  %25 = load ptr, ptr %5, align 8
  %26 = getelementptr inbounds nuw %struct.SlruSharedData, ptr %25, i32 0, i32 6
  %27 = load ptr, ptr %26, align 8
  %28 = load i32, ptr %4, align 4
  %29 = sext i32 %28 to i64
  %30 = getelementptr inbounds %union.LWLockPadded, ptr %27, i64 %29
  call void @LWLockRelease(ptr noundef %30)
  %31 = load ptr, ptr %5, align 8
  %32 = getelementptr inbounds nuw %struct.SlruSharedData, ptr %31, i32 0, i32 7
  %33 = load ptr, ptr %32, align 8
  %34 = load i32, ptr %6, align 4
  %35 = sext i32 %34 to i64
  %36 = getelementptr inbounds %union.LWLockPadded, ptr %33, i64 %35
  %37 = call zeroext i1 @LWLockAcquire(ptr noundef %36, i32 noundef 0)
  %38 = load ptr, ptr %5, align 8
  %39 = getelementptr inbounds nuw %struct.SlruSharedData, ptr %38, i32 0, i32 2
  %40 = load ptr, ptr %39, align 8
  %41 = load i32, ptr %4, align 4
  %42 = sext i32 %41 to i64
  %43 = getelementptr inbounds i32, ptr %40, i64 %42
  %44 = load i32, ptr %43, align 4
  %45 = icmp eq i32 %44, 1
  br i1 %45, label %55, label %46

46:                                               ; preds = %2
  %47 = load ptr, ptr %5, align 8
  %48 = getelementptr inbounds nuw %struct.SlruSharedData, ptr %47, i32 0, i32 2
  %49 = load ptr, ptr %48, align 8
  %50 = load i32, ptr %4, align 4
  %51 = sext i32 %50 to i64
  %52 = getelementptr inbounds i32, ptr %49, i64 %51
  %53 = load i32, ptr %52, align 4
  %54 = icmp eq i32 %53, 3
  br i1 %54, label %55, label %100

55:                                               ; preds = %46, %2
  %56 = load ptr, ptr %5, align 8
  %57 = getelementptr inbounds nuw %struct.SlruSharedData, ptr %56, i32 0, i32 6
  %58 = load ptr, ptr %57, align 8
  %59 = load i32, ptr %4, align 4
  %60 = sext i32 %59 to i64
  %61 = getelementptr inbounds %union.LWLockPadded, ptr %58, i64 %60
  %62 = call zeroext i1 @LWLockConditionalAcquire(ptr noundef %61, i32 noundef 1)
  br i1 %62, label %63, label %99

63:                                               ; preds = %55
  %64 = load ptr, ptr %5, align 8
  %65 = getelementptr inbounds nuw %struct.SlruSharedData, ptr %64, i32 0, i32 2
  %66 = load ptr, ptr %65, align 8
  %67 = load i32, ptr %4, align 4
  %68 = sext i32 %67 to i64
  %69 = getelementptr inbounds i32, ptr %66, i64 %68
  %70 = load i32, ptr %69, align 4
  %71 = icmp eq i32 %70, 1
  br i1 %71, label %72, label %79

72:                                               ; preds = %63
  %73 = load ptr, ptr %5, align 8
  %74 = getelementptr inbounds nuw %struct.SlruSharedData, ptr %73, i32 0, i32 2
  %75 = load ptr, ptr %74, align 8
  %76 = load i32, ptr %4, align 4
  %77 = sext i32 %76 to i64
  %78 = getelementptr inbounds i32, ptr %75, i64 %77
  store i32 0, ptr %78, align 4
  br label %92

79:                                               ; preds = %63
  %80 = load ptr, ptr %5, align 8
  %81 = getelementptr inbounds nuw %struct.SlruSharedData, ptr %80, i32 0, i32 2
  %82 = load ptr, ptr %81, align 8
  %83 = load i32, ptr %4, align 4
  %84 = sext i32 %83 to i64
  %85 = getelementptr inbounds i32, ptr %82, i64 %84
  store i32 2, ptr %85, align 4
  %86 = load ptr, ptr %5, align 8
  %87 = getelementptr inbounds nuw %struct.SlruSharedData, ptr %86, i32 0, i32 3
  %88 = load ptr, ptr %87, align 8
  %89 = load i32, ptr %4, align 4
  %90 = sext i32 %89 to i64
  %91 = getelementptr inbounds i8, ptr %88, i64 %90
  store i8 1, ptr %91, align 1
  br label %92

92:                                               ; preds = %79, %72
  %93 = load ptr, ptr %5, align 8
  %94 = getelementptr inbounds nuw %struct.SlruSharedData, ptr %93, i32 0, i32 6
  %95 = load ptr, ptr %94, align 8
  %96 = load i32, ptr %4, align 4
  %97 = sext i32 %96 to i64
  %98 = getelementptr inbounds %union.LWLockPadded, ptr %95, i64 %97
  call void @LWLockRelease(ptr noundef %98)
  br label %99

99:                                               ; preds = %92, %55
  br label %100

100:                                              ; preds = %99, %46
  call void @llvm.lifetime.end.p0(i64 4, ptr %6) #9
  call void @llvm.lifetime.end.p0(i64 8, ptr %5) #9
  ret void
}