; Function Attrs: nounwind uwtable
define internal fastcc void @SimpleLruWaitIO(ptr readonly captures(none) %.0.val, i32 noundef %0) unnamed_addr #3 {
  %2 = ashr i32 %0, 4
  %3 = getelementptr inbounds nuw i8, ptr %.0.val, i64 56
  %4 = load ptr, ptr %3, align 8
  %5 = sext i32 %2 to i64
  %6 = getelementptr inbounds %union.LWLockPadded, ptr %4, i64 %5
  tail call void @LWLockRelease(ptr noundef %6) #15
  %7 = getelementptr inbounds nuw i8, ptr %.0.val, i64 48
  %8 = load ptr, ptr %7, align 8
  %9 = sext i32 %0 to i64
  %10 = getelementptr inbounds %union.LWLockPadded, ptr %8, i64 %9
  %11 = tail call zeroext i1 @LWLockAcquire(ptr noundef %10, i32 noundef 1) #15
  %12 = load ptr, ptr %7, align 8
  %13 = getelementptr inbounds %union.LWLockPadded, ptr %12, i64 %9
  tail call void @LWLockRelease(ptr noundef %13) #15
  %14 = load ptr, ptr %3, align 8
  %15 = getelementptr inbounds %union.LWLockPadded, ptr %14, i64 %5
  %16 = tail call zeroext i1 @LWLockAcquire(ptr noundef %15, i32 noundef 0) #15
  %17 = getelementptr inbounds nuw i8, ptr %.0.val, i64 16
  %18 = load ptr, ptr %17, align 8
  %19 = getelementptr inbounds i32, ptr %18, i64 %9
  %20 = load i32, ptr %19, align 4
  switch i32 %20, label %38 [
    i32 1, label %21
    i32 3, label %21
  ]

21:                                               ; preds = %1, %1
  %22 = load ptr, ptr %7, align 8
  %23 = getelementptr inbounds %union.LWLockPadded, ptr %22, i64 %9
  %24 = tail call zeroext i1 @LWLockConditionalAcquire(ptr noundef %23, i32 noundef 1) #15
  br i1 %24, label %25, label %38

25:                                               ; preds = %21
  %26 = load ptr, ptr %17, align 8
  %27 = getelementptr inbounds i32, ptr %26, i64 %9
  %28 = load i32, ptr %27, align 4
  %29 = icmp eq i32 %28, 1
  br i1 %29, label %30, label %31

30:                                               ; preds = %25
  store i32 0, ptr %27, align 4
  br label %35

31:                                               ; preds = %25
  store i32 2, ptr %27, align 4
  %32 = getelementptr inbounds nuw i8, ptr %.0.val, i64 24
  %33 = load ptr, ptr %32, align 8
  %34 = getelementptr inbounds i8, ptr %33, i64 %9
  store i8 1, ptr %34, align 1
  br label %35

35:                                               ; preds = %31, %30
  %36 = load ptr, ptr %7, align 8
  %37 = getelementptr inbounds %union.LWLockPadded, ptr %36, i64 %9
  tail call void @LWLockRelease(ptr noundef %37) #15
  br label %38

38:                                               ; preds = %1, %21, %35
  ret void
}